target datalayout = "e-m:e-p270:32:32-p271:32:32-p272:64:64-i64:64-i128:128-f80:128-n8:16:32:64-S128"
target triple = "x86_64-pc-linux-gnu"

%struct.FFOutputFormat = type { %struct.AVOutputFormat, i32, i32, ptr, ptr, ptr, ptr, ptr, ptr, ptr, ptr, ptr, ptr, ptr, ptr }
%struct.AVOutputFormat = type { ptr, ptr, ptr, ptr, i32, i32, i32, i32, ptr, ptr }
%struct.AVFormatContext = type { ptr, ptr, ptr, ptr, ptr, i32, i32, ptr, i32, ptr, i32, ptr, ptr, i64, i64, i64, i32, i32, i32, i64, i64, ptr, i32, i32, ptr, i32, i32, i32, i32, ptr, i64, i32, i32, %struct.AVIOInterruptCB, i32, i32, i32, i32, i64, i32, i32, i32, i32, i32, i32, i32, i32, i32, i32, i32, i32, i64, i32, i32, i32, i32, i32, ptr, ptr, ptr, ptr, i32, ptr, ptr, ptr, ptr, i32, ptr, ptr, i64, ptr, ptr, ptr, i64 }
%struct.AVIOInterruptCB = type { ptr, ptr }
%struct.DASHContext = type { ptr, ptr, ptr, i32, i32, i32, i64, i64, i32, i32, i32, i32, ptr, i32, i64, i64, [100 x i8], i64, i64, [1024 x i8], ptr, ptr, ptr, ptr, ptr, ptr, ptr, i32, ptr, i32, i32, ptr, ptr, ptr, i32, i64, i32, ptr, i32, i32, i32, i32, i32, i32, i32, i32, i32, i32, i64, i64, i32, i64, i32, %struct.AVRational, %struct.AVRational, i64 }
%struct.AVRational = type { i32, i32 }
%struct.OutputStream = type { ptr, i32, i32, ptr, ptr, ptr, i32, [1024 x i8], i64, i64, i32, i32, i32, i32, i64, i64, i64, ptr, i64, i64, i64, i64, i64, i32, i32, i32, i32, ptr, ptr, ptr, ptr, ptr, [100 x i8], i32, [1024 x i8], [1024 x i8], [1024 x i8], double, %struct.AVProducerReferenceTime, [100 x i8], i32, i64, i32, i32, i64, %struct.AVRational, i32 }
%struct.AVProducerReferenceTime = type { i64, i32 }
%struct.AVPacket = type { ptr, i64, i64, ptr, i32, i32, i32, ptr, i32, i64, i64, ptr, ptr, %struct.AVRational }
%struct.AVStream = type { ptr, i32, i32, ptr, ptr, %struct.AVRational, i64, i64, i64, i32, i32, %struct.AVRational, ptr, %struct.AVRational, %struct.AVPacket, i32, %struct.AVRational, i32 }
%struct.FFStream = type { %struct.AVStream, ptr, i32, ptr, i32, ptr, i32, %struct.anon, i32, i32, %struct.FFFrac, ptr, ptr, i32, i32, i64, i64, i32, i32, i32, i64, i64, i64, i32, i64, i64, i64, i32, i32, [17 x i64], [17 x i8], [17 x i64], i64, i8, i8, %struct.AVRational, %struct.AVProbeData, ptr, i64, i32, i32, i32, ptr, i32, i32, i64, i64, ptr, %struct.AVRational }
%struct.anon = type { ptr, i32 }
%struct.FFFrac = type { i64, i64, i64 }
%struct.AVProbeData = type { ptr, ptr, i32, ptr }

; Function Attrs: alwaysinline nounwind uwtable
define internal ptr @ffstream(ptr noundef %0) #4 {
  %2 = alloca ptr, align 8
  store ptr %0, ptr %2, align 8, !tbaa !53
  %3 = load ptr, ptr %2, align 8, !tbaa !53
  ret ptr %3
}

; Function Attrs: inlinehint nounwind uwtable
define internal ptr @ffofmt(ptr noundef %0) #11 {
  %2 = alloca ptr, align 8
  store ptr %0, ptr %2, align 8, !tbaa !328
  %3 = load ptr, ptr %2, align 8, !tbaa !328
  ret ptr %3
}

; Function Attrs: nounwind uwtable
define internal i32 @dash_check_bitstream(ptr noundef %0, ptr noundef %1, ptr noundef %2) #0 {
  %4 = alloca i32, align 4
  %5 = alloca ptr, align 8
  %6 = alloca ptr, align 8
  %7 = alloca ptr, align 8
  %8 = alloca ptr, align 8
  %9 = alloca ptr, align 8
  %10 = alloca ptr, align 8
  %11 = alloca ptr, align 8
  %12 = alloca i32, align 4
  %13 = alloca ptr, align 8
  %14 = alloca ptr, align 8
  %15 = alloca i32, align 4
  store ptr %0, ptr %5, align 8, !tbaa !4
  store ptr %1, ptr %6, align 8, !tbaa !53
  store ptr %2, ptr %7, align 8, !tbaa !46
  call void @llvm.lifetime.start.p0(i64 8, ptr %8) #13
  %16 = load ptr, ptr %5, align 8, !tbaa !4
  %17 = getelementptr inbounds nuw %struct.AVFormatContext, ptr %16, i32 0, i32 3
  %18 = load ptr, ptr %17, align 8, !tbaa !9
  store ptr %18, ptr %8, align 8, !tbaa !26
  call void @llvm.lifetime.start.p0(i64 8, ptr %9) #13
  %19 = load ptr, ptr %8, align 8, !tbaa !26
  %20 = getelementptr inbounds nuw %struct.DASHContext, ptr %19, i32 0, i32 12
  %21 = load ptr, ptr %20, align 8, !tbaa !30
  %22 = load ptr, ptr %6, align 8, !tbaa !53
  %23 = getelementptr inbounds nuw %struct.AVStream, ptr %22, i32 0, i32 1
  %24 = load i32, ptr %23, align 8, !tbaa !184
  %25 = sext i32 %24 to i64
  %26 = getelementptr inbounds %struct.OutputStream, ptr %21, i64 %25
  store ptr %26, ptr %9, align 8, !tbaa !35
  call void @llvm.lifetime.start.p0(i64 8, ptr %10) #13
  %27 = load ptr, ptr %9, align 8, !tbaa !35
  %28 = getelementptr inbounds nuw %struct.OutputStream, ptr %27, i32 0, i32 0
  %29 = load ptr, ptr %28, align 8, !tbaa !36
  store ptr %29, ptr %10, align 8, !tbaa !4
  %30 = load ptr, ptr %10, align 8, !tbaa !4
  %31 = getelementptr inbounds nuw %struct.AVFormatContext, ptr %30, i32 0, i32 2
  %32 = load ptr, ptr %31, align 8, !tbaa !147
  %33 = call ptr @ffofmt(ptr noundef %32)
  %34 = getelementptr inbounds nuw %struct.FFOutputFormat, ptr %33, i32 0, i32 14
  %35 = load ptr, ptr %34, align 8, !tbaa !185
  %36 = icmp ne ptr %35, null
  br i1 %36, label %37, label %69

37:                                               ; preds = %3
  call void @llvm.lifetime.start.p0(i64 8, ptr %11) #13
  %38 = load ptr, ptr %10, align 8, !tbaa !4
  %39 = getelementptr inbounds nuw %struct.AVFormatContext, ptr %38, i32 0, i32 7
  %40 = load ptr, ptr %39, align 8, !tbaa !48
  %41 = getelementptr inbounds ptr, ptr %40, i64 0
  %42 = load ptr, ptr %41, align 8, !tbaa !53
  store ptr %42, ptr %11, align 8, !tbaa !53
  call void @llvm.lifetime.start.p0(i64 4, ptr %12) #13
  %43 = load ptr, ptr %10, align 8, !tbaa !4
  %44 = getelementptr inbounds nuw %struct.AVFormatContext, ptr %43, i32 0, i32 2
  %45 = load ptr, ptr %44, align 8, !tbaa !147
  %46 = call ptr @ffofmt(ptr noundef %45)
  %47 = getelementptr inbounds nuw %struct.FFOutputFormat, ptr %46, i32 0, i32 14
  %48 = load ptr, ptr %47, align 8, !tbaa !185
  %49 = load ptr, ptr %10, align 8, !tbaa !4
  %50 = load ptr, ptr %11, align 8, !tbaa !53
  %51 = load ptr, ptr %7, align 8, !tbaa !46
  %52 = call i32 %48(ptr noundef %49, ptr noundef %50, ptr noundef %51)
  store i32 %52, ptr %12, align 4, !tbaa !28
  %53 = load i32, ptr %12, align 4, !tbaa !28
  %54 = icmp eq i32 %53, 1
  br i1 %54, label %55, label %67

55:                                               ; preds = %37
  call void @llvm.lifetime.start.p0(i64 8, ptr %13) #13
  %56 = load ptr, ptr %6, align 8, !tbaa !53
  %57 = call ptr @ffstream(ptr noundef %56)
  store ptr %57, ptr %13, align 8, !tbaa !189
  call void @llvm.lifetime.start.p0(i64 8, ptr %14) #13
  %58 = load ptr, ptr %11, align 8, !tbaa !53
  %59 = call ptr @ffstream(ptr noundef %58)
  store ptr %59, ptr %14, align 8, !tbaa !189
  %60 = load ptr, ptr %14, align 8, !tbaa !189
  %61 = getelementptr inbounds nuw %struct.FFStream, ptr %60, i32 0, i32 3
  %62 = load ptr, ptr %61, align 8, !tbaa !191
  %63 = load ptr, ptr %13, align 8, !tbaa !189
  %64 = getelementptr inbounds nuw %struct.FFStream, ptr %63, i32 0, i32 3
  store ptr %62, ptr %64, align 8, !tbaa !191
  %65 = load ptr, ptr %14, align 8, !tbaa !189
  %66 = getelementptr inbounds nuw %struct.FFStream, ptr %65, i32 0, i32 3
  store ptr null, ptr %66, align 8, !tbaa !191
  call void @llvm.lifetime.end.p0(i64 8, ptr %14) #13
  call void @llvm.lifetime.end.p0(i64 8, ptr %13) #13
  br label %67

67:                                               ; preds = %55, %37
  %68 = load i32, ptr %12, align 4, !tbaa !28
  store i32 %68, ptr %4, align 4
  store i32 1, ptr %15, align 4
  call void @llvm.lifetime.end.p0(i64 4, ptr %12) #13
  call void @llvm.lifetime.end.p0(i64 8, ptr %11) #13
  br label %70

69:                                               ; preds = %3
  store i32 1, ptr %4, align 4
  store i32 1, ptr %15, align 4
  br label %70

70:                                               ; preds = %69, %67
  call void @llvm.lifetime.end.p0(i64 8, ptr %10) #13
  call void @llvm.lifetime.end.p0(i64 8, ptr %9) #13
  call void @llvm.lifetime.end.p0(i64 8, ptr %8) #13
  %71 = load i32, ptr %4, align 4
  ret i32 %71
}