; Function Attrs: nounwind uwtable
define internal i32 @dash_check_bitstream(ptr noundef readonly captures(none) %0, ptr noundef captures(none) %1, ptr noundef %2) #0 {
  %4 = getelementptr inbounds nuw i8, ptr %0, i64 24
  %5 = load ptr, ptr %4, align 8, !tbaa !24
  %6 = getelementptr inbounds nuw i8, ptr %5, i64 72
  %7 = load ptr, ptr %6, align 8, !tbaa !25
  %8 = getelementptr inbounds nuw i8, ptr %1, i64 8
  %9 = load i32, ptr %8, align 8, !tbaa !204
  %10 = sext i32 %9 to i64
  %11 = getelementptr inbounds %struct.OutputStream, ptr %7, i64 %10
  %12 = load ptr, ptr %11, align 8, !tbaa !30
  %13 = getelementptr inbounds nuw i8, ptr %12, i64 16
  %14 = load ptr, ptr %13, align 8, !tbaa !177
  %15 = getelementptr inbounds nuw i8, ptr %14, i64 160
  %16 = load ptr, ptr %15, align 8, !tbaa !205
  %.not = icmp eq ptr %16, null
  br i1 %.not, label %27, label %17

17:                                               ; preds = %3
  %18 = getelementptr inbounds nuw i8, ptr %12, i64 48
  %19 = load ptr, ptr %18, align 8, !tbaa !45
  %20 = load ptr, ptr %19, align 8, !tbaa !50
  %21 = tail call i32 %16(ptr noundef nonnull %12, ptr noundef %20, ptr noundef %2) #15
  %22 = icmp eq i32 %21, 1
  br i1 %22, label %23, label %27

23:                                               ; preds = %17
  %24 = getelementptr inbounds nuw i8, ptr %20, i64 232
  %25 = load ptr, ptr %24, align 8, !tbaa !209
  %26 = getelementptr inbounds nuw i8, ptr %1, i64 232
  store ptr %25, ptr %26, align 8, !tbaa !209
  store ptr null, ptr %24, align 8, !tbaa !209
  br label %27

27:                                               ; preds = %3, %17, %23
  %.0 = phi i32 [ 1, %23 ], [ %21, %17 ], [ 1, %3 ]
  ret i32 %.0
}